target datalayout = "e-m:e-p270:32:32-p271:32:32-p272:64:64-i64:64-i128:128-f80:128-n8:16:32:64-S128"
target triple = "x86_64-pc-linux-gnu"

%struct.TT_CMapRec_ = type { %struct.FT_CMapRec_, ptr, i32 }
%struct.FT_CMapRec_ = type { %struct.FT_CharMapRec_, ptr }
%struct.FT_CharMapRec_ = type { ptr, i32, i16, i16 }
%struct.TT_CMap14Rec_ = type { %struct.TT_CMapRec_, i64, i32, ptr, ptr }

; Function Attrs: nounwind uwtable
define internal i32 @tt_cmap14_ensure(ptr noundef %0, i32 noundef %1, ptr noundef %2) #0 {
  %4 = alloca i32, align 4
  %5 = alloca ptr, align 8
  %6 = alloca i32, align 4
  %7 = alloca ptr, align 8
  %8 = alloca i32, align 4
  %9 = alloca i32, align 4
  store ptr %0, ptr %5, align 8
  store i32 %1, ptr %6, align 4
  store ptr %2, ptr %7, align 8
  %10 = load ptr, ptr %5, align 8
  %11 = getelementptr inbounds %struct.TT_CMap14Rec_, ptr %10, i32 0, i32 2
  %12 = load i32, ptr %11, align 8
  store i32 %12, ptr %8, align 4
  store i32 0, ptr %9, align 4
  %13 = load i32, ptr %6, align 4
  %14 = load ptr, ptr %5, align 8
  %15 = getelementptr inbounds %struct.TT_CMap14Rec_, ptr %14, i32 0, i32 2
  %16 = load i32, ptr %15, align 8
  %17 = icmp ugt i32 %13, %16
  br i1 %17, label %18, label %41

18:                                               ; preds = %3
  %19 = load ptr, ptr %7, align 8
  %20 = load ptr, ptr %5, align 8
  %21 = getelementptr inbounds %struct.TT_CMap14Rec_, ptr %20, i32 0, i32 4
  store ptr %19, ptr %21, align 8
  %22 = load ptr, ptr %7, align 8
  %23 = load i32, ptr %8, align 4
  %24 = zext i32 %23 to i64
  %25 = load i32, ptr %6, align 4
  %26 = zext i32 %25 to i64
  %27 = load ptr, ptr %5, align 8
  %28 = getelementptr inbounds %struct.TT_CMap14Rec_, ptr %27, i32 0, i32 3
  %29 = load ptr, ptr %28, align 8
  %30 = call ptr @ft_mem_qrealloc(ptr noundef %22, i64 noundef 4, i64 noundef %24, i64 noundef %26, ptr noundef %29, ptr noundef %9)
  %31 = load ptr, ptr %5, align 8
  %32 = getelementptr inbounds %struct.TT_CMap14Rec_, ptr %31, i32 0, i32 3
  store ptr %30, ptr %32, align 8
  %33 = load i32, ptr %9, align 4
  %34 = icmp ne i32 %33, 0
  br i1 %34, label %35, label %37

35:                                               ; preds = %18
  %36 = load i32, ptr %9, align 4
  store i32 %36, ptr %4, align 4
  br label %43

37:                                               ; preds = %18
  %38 = load i32, ptr %6, align 4
  %39 = load ptr, ptr %5, align 8
  %40 = getelementptr inbounds %struct.TT_CMap14Rec_, ptr %39, i32 0, i32 2
  store i32 %38, ptr %40, align 8
  br label %41

41:                                               ; preds = %37, %3
  %42 = load i32, ptr %9, align 4
  store i32 %42, ptr %4, align 4
  br label %43

43:                                               ; preds = %41, %35
  %44 = load i32, ptr %4, align 4
  ret i32 %44
}

; Function Attrs: nounwind uwtable
define internal ptr @tt_cmap14_variants(ptr noundef %0, ptr noundef %1) #0 {
  %3 = alloca ptr, align 8
  %4 = alloca ptr, align 8
  %5 = alloca ptr, align 8
  %6 = alloca ptr, align 8
  %7 = alloca ptr, align 8
  %8 = alloca i32, align 4
  %9 = alloca ptr, align 8
  %10 = alloca ptr, align 8
  %11 = alloca i32, align 4
  store ptr %0, ptr %4, align 8
  store ptr %1, ptr %5, align 8
  %12 = load ptr, ptr %4, align 8
  store ptr %12, ptr %6, align 8
  %13 = load ptr, ptr %4, align 8
  store ptr %13, ptr %7, align 8
  %14 = load ptr, ptr %7, align 8
  %15 = getelementptr inbounds %struct.TT_CMap14Rec_, ptr %14, i32 0, i32 1
  %16 = load i64, ptr %15, align 8
  %17 = trunc i64 %16 to i32
  store i32 %17, ptr %8, align 4
  %18 = load ptr, ptr %6, align 8
  %19 = getelementptr inbounds %struct.TT_CMapRec_, ptr %18, i32 0, i32 1
  %20 = load ptr, ptr %19, align 8
  %21 = getelementptr inbounds i8, ptr %20, i64 10
  store ptr %21, ptr %9, align 8
  %22 = load ptr, ptr %7, align 8
  %23 = load i32, ptr %8, align 4
  %24 = add i32 %23, 1
  %25 = load ptr, ptr %5, align 8
  %26 = call i32 @tt_cmap14_ensure(ptr noundef %22, i32 noundef %24, ptr noundef %25)
  %27 = icmp ne i32 %26, 0
  br i1 %27, label %28, label %29

28:                                               ; preds = %2
  store ptr null, ptr %3, align 8
  br label %75

29:                                               ; preds = %2
  %30 = load ptr, ptr %7, align 8
  %31 = getelementptr inbounds %struct.TT_CMap14Rec_, ptr %30, i32 0, i32 3
  %32 = load ptr, ptr %31, align 8
  store ptr %32, ptr %10, align 8
  store i32 0, ptr %11, align 4
  br label %33

33:                                               ; preds = %66, %29
  %34 = load i32, ptr %11, align 4
  %35 = load i32, ptr %8, align 4
  %36 = icmp ult i32 %34, %35
  br i1 %36, label %37, label %69

37:                                               ; preds = %33
  %38 = load ptr, ptr %9, align 8
  %39 = getelementptr inbounds i8, ptr %38, i64 3
  store ptr %39, ptr %9, align 8
  %40 = load ptr, ptr %9, align 8
  %41 = getelementptr inbounds i8, ptr %40, i64 -3
  %42 = getelementptr inbounds i8, ptr %41, i64 0
  %43 = load i8, ptr %42, align 1
  %44 = zext i8 %43 to i32
  %45 = shl i32 %44, 16
  %46 = load ptr, ptr %9, align 8
  %47 = getelementptr inbounds i8, ptr %46, i64 -3
  %48 = getelementptr inbounds i8, ptr %47, i64 1
  %49 = load i8, ptr %48, align 1
  %50 = zext i8 %49 to i32
  %51 = shl i32 %50, 8
  %52 = or i32 %45, %51
  %53 = load ptr, ptr %9, align 8
  %54 = getelementptr inbounds i8, ptr %53, i64 -3
  %55 = getelementptr inbounds i8, ptr %54, i64 2
  %56 = load i8, ptr %55, align 1
  %57 = zext i8 %56 to i32
  %58 = shl i32 %57, 0
  %59 = or i32 %52, %58
  %60 = load ptr, ptr %10, align 8
  %61 = load i32, ptr %11, align 4
  %62 = zext i32 %61 to i64
  %63 = getelementptr inbounds i32, ptr %60, i64 %62
  store i32 %59, ptr %63, align 4
  %64 = load ptr, ptr %9, align 8
  %65 = getelementptr inbounds i8, ptr %64, i64 8
  store ptr %65, ptr %9, align 8
  br label %66

66:                                               ; preds = %37
  %67 = load i32, ptr %11, align 4
  %68 = add i32 %67, 1
  store i32 %68, ptr %11, align 4
  br label %33, !llvm.loop !25

69:                                               ; preds = %33
  %70 = load ptr, ptr %10, align 8
  %71 = load i32, ptr %11, align 4
  %72 = zext i32 %71 to i64
  %73 = getelementptr inbounds i32, ptr %70, i64 %72
  store i32 0, ptr %73, align 4
  %74 = load ptr, ptr %10, align 8
  store ptr %74, ptr %3, align 8
  br label %75

75:                                               ; preds = %69, %28
  %76 = load ptr, ptr %3, align 8
  ret ptr %76
}