; Function Attrs: nounwind uwtable
define internal ptr @tt_cmap14_variants(ptr nocapture noundef %0, ptr noundef %1) #0 {
  %3 = alloca i32, align 4
  %4 = getelementptr inbounds i8, ptr %0, i64 40
  %5 = load i64, ptr %4, align 8
  %6 = trunc i64 %5 to i32
  %7 = getelementptr inbounds i8, ptr %0, i64 24
  %8 = load ptr, ptr %7, align 8
  %9 = add i32 %6, 1
  call void @llvm.lifetime.start.p0(i64 4, ptr nonnull %3)
  %10 = getelementptr inbounds i8, ptr %0, i64 48
  %11 = load i32, ptr %10, align 8
  store i32 0, ptr %3, align 4
  %12 = icmp ult i32 %11, %9
  br i1 %12, label %13, label %._crit_edge28

._crit_edge28:                                    ; preds = %2
  %.phi.trans.insert = getelementptr inbounds i8, ptr %0, i64 56
  %.pre = load ptr, ptr %.phi.trans.insert, align 8
  br label %22

13:                                               ; preds = %2
  %14 = getelementptr inbounds i8, ptr %0, i64 64
  store ptr %1, ptr %14, align 8
  %15 = zext i32 %11 to i64
  %16 = zext i32 %9 to i64
  %17 = getelementptr inbounds i8, ptr %0, i64 56
  %18 = load ptr, ptr %17, align 8
  %19 = call ptr @ft_mem_qrealloc(ptr noundef %1, i64 noundef 4, i64 noundef %15, i64 noundef %16, ptr noundef %18, ptr noundef nonnull %3) #26
  store ptr %19, ptr %17, align 8
  %20 = load i32, ptr %3, align 4
  %.not.i = icmp eq i32 %20, 0
  br i1 %.not.i, label %21, label %tt_cmap14_ensure.exit

21:                                               ; preds = %13
  store i32 %9, ptr %10, align 8
  br label %22

tt_cmap14_ensure.exit:                            ; preds = %13
  call void @llvm.lifetime.end.p0(i64 4, ptr nonnull %3)
  br label %41

22:                                               ; preds = %._crit_edge28, %21
  %23 = phi ptr [ %.pre, %._crit_edge28 ], [ %19, %21 ]
  call void @llvm.lifetime.end.p0(i64 4, ptr nonnull %3)
  %.not = icmp eq i32 %6, 0
  br i1 %.not, label %._crit_edge, label %.lr.ph.preheader

.lr.ph.preheader:                                 ; preds = %22
  %24 = getelementptr inbounds i8, ptr %8, i64 10
  %wide.trip.count = and i64 %5, 4294967295
  br label %.lr.ph

.lr.ph:                                           ; preds = %.lr.ph.preheader, %.lr.ph
  %indvars.iv = phi i64 [ 0, %.lr.ph.preheader ], [ %indvars.iv.next, %.lr.ph ]
  %.02225 = phi ptr [ %24, %.lr.ph.preheader ], [ %38, %.lr.ph ]
  %25 = load i8, ptr %.02225, align 1
  %26 = zext i8 %25 to i32
  %27 = shl nuw nsw i32 %26, 16
  %28 = getelementptr inbounds i8, ptr %.02225, i64 1
  %29 = load i8, ptr %28, align 1
  %30 = zext i8 %29 to i32
  %31 = shl nuw nsw i32 %30, 8
  %32 = or disjoint i32 %31, %27
  %33 = getelementptr inbounds i8, ptr %.02225, i64 2
  %34 = load i8, ptr %33, align 1
  %35 = zext i8 %34 to i32
  %36 = or disjoint i32 %32, %35
  %37 = getelementptr inbounds i32, ptr %23, i64 %indvars.iv
  store i32 %36, ptr %37, align 4
  %38 = getelementptr inbounds i8, ptr %.02225, i64 11
  %indvars.iv.next = add nuw nsw i64 %indvars.iv, 1
  %exitcond.not = icmp eq i64 %indvars.iv.next, %wide.trip.count
  br i1 %exitcond.not, label %._crit_edge.loopexit, label %.lr.ph, !llvm.loop !29

._crit_edge.loopexit:                             ; preds = %.lr.ph
  %39 = and i64 %5, 4294967295
  br label %._crit_edge

._crit_edge:                                      ; preds = %22, %._crit_edge.loopexit
  %.0.lcssa = phi i64 [ %39, %._crit_edge.loopexit ], [ 0, %22 ]
  %40 = getelementptr inbounds i32, ptr %23, i64 %.0.lcssa
  store i32 0, ptr %40, align 4
  br label %41

41:                                               ; preds = %tt_cmap14_ensure.exit, %._crit_edge
  %.021 = phi ptr [ %23, %._crit_edge ], [ null, %tt_cmap14_ensure.exit ]
  ret ptr %.021
}